target datalayout = "e-m:e-p270:32:32-p271:32:32-p272:64:64-i64:64-i128:128-f80:128-n8:16:32:64-S128"
target triple = "x86_64-pc-linux-gnu"

; Function Attrs: nounwind uwtable
define internal i32 @Proj(double noundef %0, ptr noundef %1, ptr noundef %2, double noundef %3, ptr noundef %4, ptr noundef %5) #0 {
  %7 = alloca double, align 8
  %8 = alloca ptr, align 8
  %9 = alloca ptr, align 8
  %10 = alloca double, align 8
  %11 = alloca ptr, align 8
  %12 = alloca ptr, align 8
  %13 = alloca ptr, align 8
  %14 = alloca ptr, align 8
  %15 = alloca ptr, align 8
  %16 = alloca double, align 8
  %17 = alloca double, align 8
  %18 = alloca double, align 8
  %19 = alloca double, align 8
  %20 = alloca double, align 8
  %21 = alloca double, align 8
  %22 = alloca double, align 8
  store double %0, ptr %7, align 8, !tbaa !11
  store ptr %1, ptr %8, align 8, !tbaa !18
  store ptr %2, ptr %9, align 8, !tbaa !18
  store double %3, ptr %10, align 8, !tbaa !11
  store ptr %4, ptr %11, align 8, !tbaa !18
  store ptr %5, ptr %12, align 8, !tbaa !17
  call void @llvm.lifetime.start.p0(i64 8, ptr %13) #8
  %23 = load ptr, ptr %8, align 8, !tbaa !18
  %24 = call ptr @N_VGetArrayPointer(ptr noundef %23)
  store ptr %24, ptr %13, align 8, !tbaa !20
  call void @llvm.lifetime.start.p0(i64 8, ptr %14) #8
  %25 = load ptr, ptr %9, align 8, !tbaa !18
  %26 = call ptr @N_VGetArrayPointer(ptr noundef %25)
  store ptr %26, ptr %14, align 8, !tbaa !20
  call void @llvm.lifetime.start.p0(i64 8, ptr %15) #8
  store ptr null, ptr %15, align 8, !tbaa !20
  call void @llvm.lifetime.start.p0(i64 8, ptr %16) #8
  %27 = load ptr, ptr %13, align 8, !tbaa !20
  %28 = getelementptr inbounds double, ptr %27, i64 0
  %29 = load double, ptr %28, align 8, !tbaa !11
  store double %29, ptr %16, align 8, !tbaa !11
  call void @llvm.lifetime.start.p0(i64 8, ptr %17) #8
  %30 = load ptr, ptr %13, align 8, !tbaa !20
  %31 = getelementptr inbounds double, ptr %30, i64 1
  %32 = load double, ptr %31, align 8, !tbaa !11
  store double %32, ptr %17, align 8, !tbaa !11
  call void @llvm.lifetime.start.p0(i64 8, ptr %18) #8
  call void @llvm.lifetime.start.p0(i64 8, ptr %19) #8
  call void @llvm.lifetime.start.p0(i64 8, ptr %20) #8
  call void @llvm.lifetime.start.p0(i64 8, ptr %21) #8
  call void @llvm.lifetime.start.p0(i64 8, ptr %22) #8
  %33 = load double, ptr %16, align 8, !tbaa !11
  %34 = load double, ptr %16, align 8, !tbaa !11
  %35 = load double, ptr %17, align 8, !tbaa !11
  %36 = load double, ptr %17, align 8, !tbaa !11
  %37 = fmul double %35, %36
  %38 = call double @llvm.fmuladd.f64(double %33, double %34, double %37)
  %39 = call double @sqrt(double noundef %38) #8, !tbaa !4
  store double %39, ptr %20, align 8, !tbaa !11
  %40 = load double, ptr %16, align 8, !tbaa !11
  %41 = load double, ptr %20, align 8, !tbaa !11
  %42 = fdiv double %40, %41
  store double %42, ptr %18, align 8, !tbaa !11
  %43 = load double, ptr %17, align 8, !tbaa !11
  %44 = load double, ptr %20, align 8, !tbaa !11
  %45 = fdiv double %43, %44
  store double %45, ptr %19, align 8, !tbaa !11
  %46 = load double, ptr %18, align 8, !tbaa !11
  %47 = load double, ptr %16, align 8, !tbaa !11
  %48 = fsub double %46, %47
  %49 = load ptr, ptr %14, align 8, !tbaa !20
  %50 = getelementptr inbounds double, ptr %49, i64 0
  store double %48, ptr %50, align 8, !tbaa !11
  %51 = load double, ptr %19, align 8, !tbaa !11
  %52 = load double, ptr %17, align 8, !tbaa !11
  %53 = fsub double %51, %52
  %54 = load ptr, ptr %14, align 8, !tbaa !20
  %55 = getelementptr inbounds double, ptr %54, i64 1
  store double %53, ptr %55, align 8, !tbaa !11
  %56 = load ptr, ptr %11, align 8, !tbaa !18
  %57 = icmp ne ptr %56, null
  br i1 %57, label %58, label %97

58:                                               ; preds = %6
  %59 = load ptr, ptr %11, align 8, !tbaa !18
  %60 = call ptr @N_VGetArrayPointer(ptr noundef %59)
  store ptr %60, ptr %15, align 8, !tbaa !20
  %61 = load ptr, ptr %15, align 8, !tbaa !20
  %62 = getelementptr inbounds double, ptr %61, i64 0
  %63 = load double, ptr %62, align 8, !tbaa !11
  %64 = load double, ptr %19, align 8, !tbaa !11
  %65 = fmul double %63, %64
  %66 = load double, ptr %19, align 8, !tbaa !11
  %67 = load ptr, ptr %15, align 8, !tbaa !20
  %68 = getelementptr inbounds double, ptr %67, i64 1
  %69 = load double, ptr %68, align 8, !tbaa !11
  %70 = load double, ptr %18, align 8, !tbaa !11
  %71 = fmul double %69, %70
  %72 = load double, ptr %19, align 8, !tbaa !11
  %73 = fmul double %71, %72
  %74 = fneg double %73
  %75 = call double @llvm.fmuladd.f64(double %65, double %66, double %74)
  store double %75, ptr %21, align 8, !tbaa !11
  %76 = load ptr, ptr %15, align 8, !tbaa !20
  %77 = getelementptr inbounds double, ptr %76, i64 0
  %78 = load double, ptr %77, align 8, !tbaa !11
  %79 = fneg double %78
  %80 = load double, ptr %18, align 8, !tbaa !11
  %81 = fmul double %79, %80
  %82 = load double, ptr %19, align 8, !tbaa !11
  %83 = load ptr, ptr %15, align 8, !tbaa !20
  %84 = getelementptr inbounds double, ptr %83, i64 1
  %85 = load double, ptr %84, align 8, !tbaa !11
  %86 = load double, ptr %18, align 8, !tbaa !11
  %87 = fmul double %85, %86
  %88 = load double, ptr %18, align 8, !tbaa !11
  %89 = fmul double %87, %88
  %90 = call double @llvm.fmuladd.f64(double %81, double %82, double %89)
  store double %90, ptr %22, align 8, !tbaa !11
  %91 = load double, ptr %21, align 8, !tbaa !11
  %92 = load ptr, ptr %15, align 8, !tbaa !20
  %93 = getelementptr inbounds double, ptr %92, i64 0
  store double %91, ptr %93, align 8, !tbaa !11
  %94 = load double, ptr %22, align 8, !tbaa !11
  %95 = load ptr, ptr %15, align 8, !tbaa !20
  %96 = getelementptr inbounds double, ptr %95, i64 1
  store double %94, ptr %96, align 8, !tbaa !11
  br label %97

97:                                               ; preds = %58, %6
  call void @llvm.lifetime.end.p0(i64 8, ptr %22) #8
  call void @llvm.lifetime.end.p0(i64 8, ptr %21) #8
  call void @llvm.lifetime.end.p0(i64 8, ptr %20) #8
  call void @llvm.lifetime.end.p0(i64 8, ptr %19) #8
  call void @llvm.lifetime.end.p0(i64 8, ptr %18) #8
  call void @llvm.lifetime.end.p0(i64 8, ptr %17) #8
  call void @llvm.lifetime.end.p0(i64 8, ptr %16) #8
  call void @llvm.lifetime.end.p0(i64 8, ptr %15) #8
  call void @llvm.lifetime.end.p0(i64 8, ptr %14) #8
  call void @llvm.lifetime.end.p0(i64 8, ptr %13) #8
  ret i32 0
}