; Function Attrs: nounwind uwtable
define internal noundef i32 @Proj(double %0, ptr noundef %1, ptr noundef %2, double %3, ptr noundef %4, ptr readnone captures(none) %5) #0 {
  %7 = tail call ptr @N_VGetArrayPointer(ptr noundef %1) #13
  %8 = tail call ptr @N_VGetArrayPointer(ptr noundef %2) #13
  %9 = load double, ptr %7, align 8, !tbaa !4
  %10 = getelementptr inbounds nuw i8, ptr %7, i64 8
  %11 = load double, ptr %10, align 8, !tbaa !4
  %12 = fmul double %11, %11
  %13 = tail call double @llvm.fmuladd.f64(double %9, double %9, double %12)
  %sqrt = tail call double @llvm.sqrt.f64(double %13)
  %14 = fdiv double %9, %sqrt
  %15 = fdiv double %11, %sqrt
  %16 = fsub double %14, %9
  store double %16, ptr %8, align 8, !tbaa !4
  %17 = fsub double %15, %11
  %18 = getelementptr inbounds nuw i8, ptr %8, i64 8
  store double %17, ptr %18, align 8, !tbaa !4
  %.not = icmp eq ptr %4, null
  br i1 %.not, label %33, label %19

19:                                               ; preds = %6
  %20 = tail call ptr @N_VGetArrayPointer(ptr noundef nonnull %4) #13
  %21 = load double, ptr %20, align 8, !tbaa !4
  %22 = fmul double %15, %21
  %23 = getelementptr inbounds nuw i8, ptr %20, i64 8
  %24 = load double, ptr %23, align 8, !tbaa !4
  %25 = fmul double %14, %24
  %26 = fneg double %15
  %27 = fmul double %25, %26
  %28 = tail call double @llvm.fmuladd.f64(double %22, double %15, double %27)
  %29 = fneg double %21
  %30 = fmul double %14, %29
  %31 = fmul double %14, %25
  %32 = tail call double @llvm.fmuladd.f64(double %30, double %15, double %31)
  store double %28, ptr %20, align 8, !tbaa !4
  store double %32, ptr %23, align 8, !tbaa !4
  br label %33

33:                                               ; preds = %19, %6
  ret i32 0
}